target datalayout = "e-m:e-p270:32:32-p271:32:32-p272:64:64-i64:64-i128:128-f80:128-n8:16:32:64-S128"
target triple = "x86_64-pc-linux-gnu"

%"class.std::__1::basic_string" = type { %"class.std::__1::__compressed_pair.2" }
%"class.std::__1::__compressed_pair.2" = type { %"struct.std::__1::__compressed_pair_elem.3" }
%"struct.std::__1::__compressed_pair_elem.3" = type { %"struct.std::__1::basic_string<char>::__rep" }
%"struct.std::__1::basic_string<char>::__rep" = type { %union.anon }
%union.anon = type { %"struct.std::__1::basic_string<char>::__long" }
%"struct.std::__1::basic_string<char>::__long" = type { %struct.anon.4, i64, ptr }
%struct.anon.4 = type { i64 }
%"class.mitsuba::ZStream" = type <{ %"class.mitsuba::Stream", %"class.mitsuba::ref", %"class.std::__1::unique_ptr", %"class.std::__1::unique_ptr", [32768 x i8], [32768 x i8], i8, [7 x i8] }>
%"class.mitsuba::Stream" = type { %"class.mitsuba::Object.base", i32 }
%"class.mitsuba::Object.base" = type <{ ptr, %"struct.std::__1::atomic" }>
%"struct.std::__1::atomic" = type { %"struct.std::__1::__atomic_base" }
%"struct.std::__1::__atomic_base" = type { %"struct.std::__1::__atomic_base.0" }
%"struct.std::__1::__atomic_base.0" = type { %"struct.std::__1::__cxx_atomic_impl" }
%"struct.std::__1::__cxx_atomic_impl" = type { %"struct.std::__1::__cxx_atomic_base_impl" }
%"struct.std::__1::__cxx_atomic_base_impl" = type { i32 }
%"class.mitsuba::ref" = type { ptr }
%"class.std::__1::unique_ptr" = type { %"class.std::__1::__compressed_pair" }
%"class.std::__1::__compressed_pair" = type { %"struct.std::__1::__compressed_pair_elem" }
%"struct.std::__1::__compressed_pair_elem" = type { ptr }
%struct.z_stream_s = type { ptr, i32, i64, ptr, i32, i64, ptr, ptr, ptr, ptr, ptr, i32, i64, i64 }

@_ZN7mitsuba7ZStream7m_classE = global ptr null, align 8
@.str.1 = private unnamed_addr constant [116 x i8] c"generated/home/dtcxzyw/WorkSpace/Projects/compilers/llvm-opt-benchmark/bench/mitsuba3/mitsuba3/src/core/zstream.cpp\00", align 1
@.str.3 = private unnamed_addr constant [25 x i8] c"deflate(): stream error!\00", align 1

; Function Attrs: mustprogress nounwind uwtable
define linkonce_odr hidden noundef nonnull align 8 dereferenceable(8) ptr @_ZNKSt3__122__compressed_pair_elemIP10z_stream_sLi0ELb0EE5__getB8ne190000Ev(ptr noundef nonnull align 8 dereferenceable(8) %0) #4 comdat align 2 {
  %2 = alloca ptr, align 8
  store ptr %0, ptr %2, align 8
  %3 = load ptr, ptr %2, align 8
  %4 = getelementptr inbounds %"struct.std::__1::__compressed_pair_elem", ptr %3, i32 0, i32 0
  ret ptr %4
}

; Function Attrs: mustprogress nounwind uwtable
define linkonce_odr hidden noundef nonnull align 8 dereferenceable(8) ptr @_ZNKSt3__117__compressed_pairIP10z_stream_sNS_14default_deleteIS1_EEE5firstB8ne190000Ev(ptr noundef nonnull align 8 dereferenceable(8) %0) #4 comdat align 2 {
  %2 = alloca ptr, align 8
  store ptr %0, ptr %2, align 8
  %3 = load ptr, ptr %2, align 8
  %4 = call noundef nonnull align 8 dereferenceable(8) ptr @_ZNKSt3__122__compressed_pair_elemIP10z_stream_sLi0ELb0EE5__getB8ne190000Ev(ptr noundef nonnull align 8 dereferenceable(8) %3) #17
  ret ptr %4
}

; Function Attrs: mustprogress nounwind uwtable
define linkonce_odr hidden noundef ptr @_ZN7mitsuba3refINS_6StreamEEptEv(ptr noundef nonnull align 8 dereferenceable(8) %0) #4 comdat align 2 {
  %2 = alloca ptr, align 8
  store ptr %0, ptr %2, align 8
  %3 = load ptr, ptr %2, align 8
  %4 = getelementptr inbounds %"class.mitsuba::ref", ptr %3, i32 0, i32 0
  %5 = load ptr, ptr %4, align 8
  ret ptr %5
}

; Function Attrs: mustprogress nounwind uwtable
define linkonce_odr hidden noundef ptr @_ZNKSt3__110unique_ptrI10z_stream_sNS_14default_deleteIS1_EEE3getB8ne190000Ev(ptr noundef nonnull align 8 dereferenceable(8) %0) #4 comdat align 2 {
  %2 = alloca ptr, align 8
  store ptr %0, ptr %2, align 8
  %3 = load ptr, ptr %2, align 8
  %4 = getelementptr inbounds %"class.std::__1::unique_ptr", ptr %3, i32 0, i32 0
  %5 = call noundef nonnull align 8 dereferenceable(8) ptr @_ZNKSt3__117__compressed_pairIP10z_stream_sNS_14default_deleteIS1_EEE5firstB8ne190000Ev(ptr noundef nonnull align 8 dereferenceable(8) %4) #17
  %6 = load ptr, ptr %5, align 8
  ret ptr %6
}

; Function Attrs: mustprogress nounwind uwtable
define linkonce_odr hidden noundef ptr @_ZNKSt3__110unique_ptrI10z_stream_sNS_14default_deleteIS1_EEEptB8ne190000Ev(ptr noundef nonnull align 8 dereferenceable(8) %0) #4 comdat align 2 {
  %2 = alloca ptr, align 8
  store ptr %0, ptr %2, align 8
  %3 = load ptr, ptr %2, align 8
  %4 = getelementptr inbounds %"class.std::__1::unique_ptr", ptr %3, i32 0, i32 0
  %5 = call noundef nonnull align 8 dereferenceable(8) ptr @_ZNKSt3__117__compressed_pairIP10z_stream_sNS_14default_deleteIS1_EEE5firstB8ne190000Ev(ptr noundef nonnull align 8 dereferenceable(8) %4) #17
  %6 = load ptr, ptr %5, align 8
  ret ptr %6
}

; Function Attrs: mustprogress uwtable
define void @_ZN7mitsuba7ZStream5flushEv(ptr noundef nonnull align 8 dereferenceable(65577) %0) unnamed_addr #0 align 2 personality ptr @__gxx_personality_v0 {
  %2 = alloca ptr, align 8
  %3 = alloca i32, align 4
  %4 = alloca i32, align 4
  %5 = alloca %"class.std::__1::basic_string", align 8
  %6 = alloca ptr, align 8
  %7 = alloca i32, align 4
  store ptr %0, ptr %2, align 8
  %8 = load ptr, ptr %2, align 8
  %9 = getelementptr inbounds %"class.mitsuba::ZStream", ptr %8, i32 0, i32 6
  %10 = load i8, ptr %9, align 8
  %11 = trunc i8 %10 to i1
  br i1 %11, label %12, label %68

12:                                               ; preds = %1
  %13 = getelementptr inbounds %"class.mitsuba::ZStream", ptr %8, i32 0, i32 2
  %14 = call noundef ptr @_ZNKSt3__110unique_ptrI10z_stream_sNS_14default_deleteIS1_EEEptB8ne190000Ev(ptr noundef nonnull align 8 dereferenceable(8) %13) #17
  %15 = getelementptr inbounds %struct.z_stream_s, ptr %14, i32 0, i32 1
  store i32 0, ptr %15, align 8
  %16 = getelementptr inbounds %"class.mitsuba::ZStream", ptr %8, i32 0, i32 2
  %17 = call noundef ptr @_ZNKSt3__110unique_ptrI10z_stream_sNS_14default_deleteIS1_EEEptB8ne190000Ev(ptr noundef nonnull align 8 dereferenceable(8) %16) #17
  %18 = getelementptr inbounds %struct.z_stream_s, ptr %17, i32 0, i32 0
  store ptr null, ptr %18, align 8
  store i32 0, ptr %3, align 4
  br label %19

19:                                               ; preds = %59, %12
  %20 = getelementptr inbounds %"class.mitsuba::ZStream", ptr %8, i32 0, i32 2
  %21 = call noundef ptr @_ZNKSt3__110unique_ptrI10z_stream_sNS_14default_deleteIS1_EEEptB8ne190000Ev(ptr noundef nonnull align 8 dereferenceable(8) %20) #17
  %22 = getelementptr inbounds %struct.z_stream_s, ptr %21, i32 0, i32 4
  store i32 32768, ptr %22, align 8
  %23 = getelementptr inbounds %"class.mitsuba::ZStream", ptr %8, i32 0, i32 4
  %24 = getelementptr inbounds [32768 x i8], ptr %23, i64 0, i64 0
  %25 = getelementptr inbounds %"class.mitsuba::ZStream", ptr %8, i32 0, i32 2
  %26 = call noundef ptr @_ZNKSt3__110unique_ptrI10z_stream_sNS_14default_deleteIS1_EEEptB8ne190000Ev(ptr noundef nonnull align 8 dereferenceable(8) %25) #17
  %27 = getelementptr inbounds %struct.z_stream_s, ptr %26, i32 0, i32 3
  store ptr %24, ptr %27, align 8
  %28 = getelementptr inbounds %"class.mitsuba::ZStream", ptr %8, i32 0, i32 2
  %29 = call noundef ptr @_ZNKSt3__110unique_ptrI10z_stream_sNS_14default_deleteIS1_EEE3getB8ne190000Ev(ptr noundef nonnull align 8 dereferenceable(8) %28) #17
  %30 = call i32 @deflate(ptr noundef %29, i32 noundef 3)
  store i32 %30, ptr %4, align 4
  %31 = load i32, ptr %4, align 4
  %32 = icmp eq i32 %31, -2
  br i1 %32, label %33, label %42

33:                                               ; preds = %19
  br label %34

34:                                               ; preds = %33
  %35 = load ptr, ptr @_ZN7mitsuba7ZStream7m_classE, align 8
  call void @_ZN10tinyformat6formatIJEEENSt3__112basic_stringIcNS1_11char_traitsIcEENS1_9allocatorIcEEEEPKcDpRKT_(ptr dead_on_unwind writable sret(%"class.std::__1::basic_string") align 8 %5, ptr noundef @.str.3)
  invoke void @_ZN7mitsuba6detail5ThrowENS_8LogLevelEPKNS_5ClassEPKciRKNSt3__112basic_stringIcNS7_11char_traitsIcEENS7_9allocatorIcEEEE(i32 noundef 400, ptr noundef %35, ptr noundef @.str.1, i32 noundef 115, ptr noundef nonnull align 8 dereferenceable(24) %5) #18
          to label %36 unwind label %37

36:                                               ; preds = %34
  unreachable

37:                                               ; preds = %34
  %38 = landingpad { ptr, i32 }
          cleanup
  %39 = extractvalue { ptr, i32 } %38, 0
  store ptr %39, ptr %6, align 8
  %40 = extractvalue { ptr, i32 } %38, 1
  store i32 %40, ptr %7, align 4
  call void @_ZNSt3__112basic_stringIcNS_11char_traitsIcEENS_9allocatorIcEEED1Ev(ptr noundef nonnull align 8 dereferenceable(24) %5) #17
  br label %69

41:                                               ; No predecessors!
  br label %42

42:                                               ; preds = %41, %19
  %43 = getelementptr inbounds %"class.mitsuba::ZStream", ptr %8, i32 0, i32 2
  %44 = call noundef ptr @_ZNKSt3__110unique_ptrI10z_stream_sNS_14default_deleteIS1_EEEptB8ne190000Ev(ptr noundef nonnull align 8 dereferenceable(8) %43) #17
  %45 = getelementptr inbounds %struct.z_stream_s, ptr %44, i32 0, i32 4
  %46 = load i32, ptr %45, align 8
  %47 = zext i32 %46 to i64
  %48 = sub i64 32768, %47
  %49 = trunc i64 %48 to i32
  store i32 %49, ptr %3, align 4
  %50 = getelementptr inbounds %"class.mitsuba::ZStream", ptr %8, i32 0, i32 1
  %51 = call noundef ptr @_ZN7mitsuba3refINS_6StreamEEptEv(ptr noundef nonnull align 8 dereferenceable(8) %50)
  %52 = getelementptr inbounds %"class.mitsuba::ZStream", ptr %8, i32 0, i32 4
  %53 = getelementptr inbounds [32768 x i8], ptr %52, i64 0, i64 0
  %54 = load i32, ptr %3, align 4
  %55 = sext i32 %54 to i64
  %56 = load ptr, ptr %51, align 8
  %57 = getelementptr inbounds ptr, ptr %56, i64 12
  %58 = load ptr, ptr %57, align 8
  call void %58(ptr noundef nonnull align 8 dereferenceable(16) %51, ptr noundef %53, i64 noundef %55)
  br label %59

59:                                               ; preds = %42
  %60 = load i32, ptr %3, align 4
  %61 = icmp ne i32 %60, 0
  br i1 %61, label %19, label %62, !llvm.loop !7

62:                                               ; preds = %59
  %63 = getelementptr inbounds %"class.mitsuba::ZStream", ptr %8, i32 0, i32 1
  %64 = call noundef ptr @_ZN7mitsuba3refINS_6StreamEEptEv(ptr noundef nonnull align 8 dereferenceable(8) %63)
  %65 = load ptr, ptr %64, align 8
  %66 = getelementptr inbounds ptr, ptr %65, i64 17
  %67 = load ptr, ptr %66, align 8
  call void %67(ptr noundef nonnull align 8 dereferenceable(16) %64)
  br label %68

68:                                               ; preds = %62, %1
  ret void

69:                                               ; preds = %37
  %70 = load ptr, ptr %6, align 8
  %71 = load i32, ptr %7, align 4
  %72 = insertvalue { ptr, i32 } poison, ptr %70, 0
  %73 = insertvalue { ptr, i32 } %72, i32 %71, 1
  resume { ptr, i32 } %73
}