; Function Attrs: mustprogress uwtable
define void @_ZN7mitsuba7ZStream5flushEv(ptr noundef nonnull align 8 dereferenceable(65577) %0) unnamed_addr #0 align 2 personality ptr @__gxx_personality_v0 {
  %2 = alloca %"class.std::__1::basic_string", align 8
  %3 = getelementptr inbounds i8, ptr %0, i64 65576
  %4 = load i8, ptr %3, align 8
  %5 = and i8 %4, 1
  %.not = icmp eq i8 %5, 0
  br i1 %.not, label %41, label %6

6:                                                ; preds = %1
  %7 = getelementptr inbounds i8, ptr %0, i64 24
  %8 = load ptr, ptr %7, align 8
  %9 = getelementptr inbounds i8, ptr %8, i64 8
  store i32 0, ptr %9, align 8
  %10 = load ptr, ptr %7, align 8
  store ptr null, ptr %10, align 8
  %11 = getelementptr inbounds i8, ptr %0, i64 40
  %12 = getelementptr inbounds i8, ptr %0, i64 16
  br label %13

13:                                               ; preds = %26, %6
  %14 = load ptr, ptr %7, align 8
  %15 = getelementptr inbounds i8, ptr %14, i64 32
  store i32 32768, ptr %15, align 8
  %16 = load ptr, ptr %7, align 8
  %17 = getelementptr inbounds i8, ptr %16, i64 24
  store ptr %11, ptr %17, align 8
  %18 = load ptr, ptr %7, align 8
  %19 = tail call i32 @deflate(ptr noundef %18, i32 noundef 3)
  %20 = icmp eq i32 %19, -2
  br i1 %20, label %21, label %26

21:                                               ; preds = %13
  %22 = load ptr, ptr @_ZN7mitsuba7ZStream7m_classE, align 8
  call void @_ZN10tinyformat6formatIJEEENSt3__112basic_stringIcNS1_11char_traitsIcEENS1_9allocatorIcEEEEPKcDpRKT_(ptr dead_on_unwind nonnull writable sret(%"class.std::__1::basic_string") align 8 %2, ptr noundef nonnull @.str.3)
  invoke void @_ZN7mitsuba6detail5ThrowENS_8LogLevelEPKNS_5ClassEPKciRKNSt3__112basic_stringIcNS7_11char_traitsIcEENS7_9allocatorIcEEEE(i32 noundef 400, ptr noundef %22, ptr noundef nonnull @.str.1, i32 noundef 115, ptr noundef nonnull align 8 dereferenceable(24) %2) #14
          to label %23 unwind label %24

23:                                               ; preds = %21
  unreachable

24:                                               ; preds = %21
  %25 = landingpad { ptr, i32 }
          cleanup
  call void @_ZNSt3__112basic_stringIcNS_11char_traitsIcEENS_9allocatorIcEEED1Ev(ptr noundef nonnull align 8 dereferenceable(24) %2) #15
  resume { ptr, i32 } %25

26:                                               ; preds = %13
  %27 = load ptr, ptr %7, align 8
  %28 = getelementptr inbounds i8, ptr %27, i64 32
  %29 = load i32, ptr %28, align 8
  %30 = sub i32 32768, %29
  %31 = load ptr, ptr %12, align 8
  %32 = sext i32 %30 to i64
  %33 = load ptr, ptr %31, align 8
  %34 = getelementptr inbounds i8, ptr %33, i64 96
  %35 = load ptr, ptr %34, align 8
  tail call void %35(ptr noundef nonnull align 8 dereferenceable(16) %31, ptr noundef nonnull %11, i64 noundef %32)
  %.not5 = icmp eq i32 %29, 32768
  br i1 %.not5, label %36, label %13, !llvm.loop !13

36:                                               ; preds = %26
  %37 = load ptr, ptr %12, align 8
  %38 = load ptr, ptr %37, align 8
  %39 = getelementptr inbounds i8, ptr %38, i64 136
  %40 = load ptr, ptr %39, align 8
  tail call void %40(ptr noundef nonnull align 8 dereferenceable(16) %37)
  br label %41

41:                                               ; preds = %36, %1
  ret void
}